target datalayout = "e-m:e-p270:32:32-p271:32:32-p272:64:64-i64:64-i128:128-f80:128-n8:16:32:64-S128"
target triple = "x86_64-pc-linux-gnu"

@plugin_type = dso_local constant [15 x i8] c"jobcomp/script\00", align 1
@.str.15 = private unnamed_addr constant [42 x i8] c"%s: %s: This function is not implemented.\00", align 1
@__func__.jobcomp_p_get_jobs = private unnamed_addr constant [19 x i8] c"jobcomp_p_get_jobs\00", align 1

; Function Attrs: nounwind uwtable
define dso_local ptr @jobcomp_p_get_jobs(ptr noundef %0) #0 {
  %2 = alloca ptr, align 8
  store ptr %0, ptr %2, align 8
  br label %3

3:                                                ; preds = %1
  br label %4

4:                                                ; preds = %3
  %5 = call i32 @slurm_get_log_level()
  %6 = icmp sge i32 %5, 3
  br i1 %6, label %7, label %8

7:                                                ; preds = %4
  call void (i32, ptr, ...) @slurm_log_var(i32 noundef 3, ptr noundef @.str.15, ptr noundef @plugin_type, ptr noundef @__func__.jobcomp_p_get_jobs)
  br label %8

8:                                                ; preds = %7, %4
  br label %9

9:                                                ; preds = %8
  br label %10

10:                                               ; preds = %9
  ret ptr null
}